target datalayout = "e-m:e-p270:32:32-p271:32:32-p272:64:64-i64:64-i128:128-f80:128-n8:16:32:64-S128"
target triple = "x86_64-pc-linux-gnu"

%struct.VAAPIDevicePriv = type { ptr, i32 }
%struct.AVHWDeviceContext = type { ptr, i32, ptr, ptr, ptr }
%struct.AVDRMDeviceContext = type { i32 }

@.str.34 = private unnamed_addr constant [73 x i8] c"DRM instance requires an associated device to derive a VA display from.\0A\00", align 1
@.str.35 = private unnamed_addr constant [59 x i8] c"DRM instance fd does not appear to refer to a DRM device.\0A\00", align 1
@.str.36 = private unnamed_addr constant [83 x i8] c"Using non-render node because the device does not have an associated render node.\0A\00", align 1
@.str.37 = private unnamed_addr constant [79 x i8] c"Using non-render node because the associated render node could not be opened.\0A\00", align 1
@.str.38 = private unnamed_addr constant [57 x i8] c"Using render node %s in place of non-render DRM device.\0A\00", align 1
@.str.39 = private unnamed_addr constant [46 x i8] c"Failed to open a VA display from DRM device.\0A\00", align 1

; Function Attrs: nounwind uwtable
define internal i32 @vaapi_device_derive(ptr noundef %0, ptr noundef %1, ptr noundef %2, i32 noundef %3) #0 {
  %5 = alloca i32, align 4
  %6 = alloca ptr, align 8
  %7 = alloca ptr, align 8
  %8 = alloca ptr, align 8
  %9 = alloca i32, align 4
  %10 = alloca ptr, align 8
  %11 = alloca ptr, align 8
  %12 = alloca ptr, align 8
  %13 = alloca i32, align 4
  %14 = alloca i32, align 4
  %15 = alloca i32, align 4
  %16 = alloca ptr, align 8
  store ptr %0, ptr %6, align 8, !tbaa !4
  store ptr %1, ptr %7, align 8, !tbaa !4
  store ptr %2, ptr %8, align 8, !tbaa !11
  store i32 %3, ptr %9, align 4, !tbaa !13
  %17 = load ptr, ptr %7, align 8, !tbaa !4
  %18 = getelementptr inbounds nuw %struct.AVHWDeviceContext, ptr %17, i32 0, i32 1
  %19 = load i32, ptr %18, align 8, !tbaa !42
  %20 = icmp eq i32 %19, 8
  br i1 %20, label %21, label %122

21:                                               ; preds = %4
  call void @llvm.lifetime.start.p0(i64 8, ptr %10) #10
  %22 = load ptr, ptr %7, align 8, !tbaa !4
  %23 = getelementptr inbounds nuw %struct.AVHWDeviceContext, ptr %22, i32 0, i32 2
  %24 = load ptr, ptr %23, align 8, !tbaa !43
  store ptr %24, ptr %10, align 8, !tbaa !44
  call void @llvm.lifetime.start.p0(i64 8, ptr %11) #10
  call void @llvm.lifetime.start.p0(i64 8, ptr %12) #10
  call void @llvm.lifetime.start.p0(i64 4, ptr %13) #10
  %25 = load ptr, ptr %10, align 8, !tbaa !44
  %26 = getelementptr inbounds nuw %struct.AVDRMDeviceContext, ptr %25, i32 0, i32 0
  %27 = load i32, ptr %26, align 4, !tbaa !46
  %28 = icmp slt i32 %27, 0
  br i1 %28, label %29, label %31

29:                                               ; preds = %21
  %30 = load ptr, ptr %6, align 8, !tbaa !4
  call void (ptr, i32, ptr, ...) @av_log(ptr noundef %30, i32 noundef 16, ptr noundef @.str.34)
  store i32 -22, ptr %5, align 4
  store i32 1, ptr %14, align 4
  br label %121

31:                                               ; preds = %21
  call void @llvm.lifetime.start.p0(i64 4, ptr %15) #10
  %32 = load ptr, ptr %10, align 8, !tbaa !44
  %33 = getelementptr inbounds nuw %struct.AVDRMDeviceContext, ptr %32, i32 0, i32 0
  %34 = load i32, ptr %33, align 4, !tbaa !46
  %35 = call i32 @drmGetNodeTypeFromFd(i32 noundef %34)
  store i32 %35, ptr %15, align 4, !tbaa !13
  call void @llvm.lifetime.start.p0(i64 8, ptr %16) #10
  %36 = load i32, ptr %15, align 4, !tbaa !13
  %37 = icmp slt i32 %36, 0
  br i1 %37, label %38, label %40

38:                                               ; preds = %31
  %39 = load ptr, ptr %6, align 8, !tbaa !4
  call void (ptr, i32, ptr, ...) @av_log(ptr noundef %39, i32 noundef 16, ptr noundef @.str.35)
  store i32 -22, ptr %5, align 4
  store i32 1, ptr %14, align 4
  br label %76

40:                                               ; preds = %31
  %41 = load i32, ptr %15, align 4, !tbaa !13
  %42 = icmp eq i32 %41, 2
  br i1 %42, label %43, label %47

43:                                               ; preds = %40
  %44 = load ptr, ptr %10, align 8, !tbaa !44
  %45 = getelementptr inbounds nuw %struct.AVDRMDeviceContext, ptr %44, i32 0, i32 0
  %46 = load i32, ptr %45, align 4, !tbaa !46
  store i32 %46, ptr %13, align 4, !tbaa !13
  br label %75

47:                                               ; preds = %40
  %48 = load ptr, ptr %10, align 8, !tbaa !44
  %49 = getelementptr inbounds nuw %struct.AVDRMDeviceContext, ptr %48, i32 0, i32 0
  %50 = load i32, ptr %49, align 4, !tbaa !46
  %51 = call ptr @drmGetRenderDeviceNameFromFd(i32 noundef %50)
  store ptr %51, ptr %16, align 8, !tbaa !9
  %52 = load ptr, ptr %16, align 8, !tbaa !9
  %53 = icmp ne ptr %52, null
  br i1 %53, label %59, label %54

54:                                               ; preds = %47
  %55 = load ptr, ptr %6, align 8, !tbaa !4
  call void (ptr, i32, ptr, ...) @av_log(ptr noundef %55, i32 noundef 40, ptr noundef @.str.36)
  %56 = load ptr, ptr %10, align 8, !tbaa !44
  %57 = getelementptr inbounds nuw %struct.AVDRMDeviceContext, ptr %56, i32 0, i32 0
  %58 = load i32, ptr %57, align 4, !tbaa !46
  store i32 %58, ptr %13, align 4, !tbaa !13
  br label %74

59:                                               ; preds = %47
  %60 = load ptr, ptr %16, align 8, !tbaa !9
  %61 = call i32 (ptr, i32, ...) @open64(ptr noundef %60, i32 noundef 2)
  store i32 %61, ptr %13, align 4, !tbaa !13
  %62 = load i32, ptr %13, align 4, !tbaa !13
  %63 = icmp slt i32 %62, 0
  br i1 %63, label %64, label %69

64:                                               ; preds = %59
  %65 = load ptr, ptr %6, align 8, !tbaa !4
  call void (ptr, i32, ptr, ...) @av_log(ptr noundef %65, i32 noundef 40, ptr noundef @.str.37)
  %66 = load ptr, ptr %10, align 8, !tbaa !44
  %67 = getelementptr inbounds nuw %struct.AVDRMDeviceContext, ptr %66, i32 0, i32 0
  %68 = load i32, ptr %67, align 4, !tbaa !46
  store i32 %68, ptr %13, align 4, !tbaa !13
  br label %72

69:                                               ; preds = %59
  %70 = load ptr, ptr %6, align 8, !tbaa !4
  %71 = load ptr, ptr %16, align 8, !tbaa !9
  call void (ptr, i32, ptr, ...) @av_log(ptr noundef %70, i32 noundef 40, ptr noundef @.str.38, ptr noundef %71)
  br label %72

72:                                               ; preds = %69, %64
  %73 = load ptr, ptr %16, align 8, !tbaa !9
  call void @free(ptr noundef %73) #10
  br label %74

74:                                               ; preds = %72, %54
  br label %75

75:                                               ; preds = %74, %43
  store i32 0, ptr %14, align 4
  br label %76

76:                                               ; preds = %75, %38
  call void @llvm.lifetime.end.p0(i64 8, ptr %16) #10
  call void @llvm.lifetime.end.p0(i64 4, ptr %15) #10
  %77 = load i32, ptr %14, align 4
  switch i32 %77, label %121 [
    i32 0, label %78
  ]

78:                                               ; preds = %76
  %79 = call noalias ptr @av_mallocz(i64 noundef 16)
  store ptr %79, ptr %12, align 8, !tbaa !16
  %80 = load ptr, ptr %12, align 8, !tbaa !16
  %81 = icmp ne ptr %80, null
  br i1 %81, label %92, label %82

82:                                               ; preds = %78
  %83 = load i32, ptr %13, align 4, !tbaa !13
  %84 = load ptr, ptr %10, align 8, !tbaa !44
  %85 = getelementptr inbounds nuw %struct.AVDRMDeviceContext, ptr %84, i32 0, i32 0
  %86 = load i32, ptr %85, align 4, !tbaa !46
  %87 = icmp ne i32 %83, %86
  br i1 %87, label %88, label %91

88:                                               ; preds = %82
  %89 = load i32, ptr %13, align 4, !tbaa !13
  %90 = call i32 @close(i32 noundef %89)
  br label %91

91:                                               ; preds = %88, %82
  store i32 -12, ptr %5, align 4
  store i32 1, ptr %14, align 4
  br label %121

92:                                               ; preds = %78
  %93 = load i32, ptr %13, align 4, !tbaa !13
  %94 = load ptr, ptr %10, align 8, !tbaa !44
  %95 = getelementptr inbounds nuw %struct.AVDRMDeviceContext, ptr %94, i32 0, i32 0
  %96 = load i32, ptr %95, align 4, !tbaa !46
  %97 = icmp eq i32 %93, %96
  br i1 %97, label %98, label %101

98:                                               ; preds = %92
  %99 = load ptr, ptr %12, align 8, !tbaa !16
  %100 = getelementptr inbounds nuw %struct.VAAPIDevicePriv, ptr %99, i32 0, i32 1
  store i32 -1, ptr %100, align 8, !tbaa !18
  br label %105

101:                                              ; preds = %92
  %102 = load i32, ptr %13, align 4, !tbaa !13
  %103 = load ptr, ptr %12, align 8, !tbaa !16
  %104 = getelementptr inbounds nuw %struct.VAAPIDevicePriv, ptr %103, i32 0, i32 1
  store i32 %102, ptr %104, align 8, !tbaa !18
  br label %105

105:                                              ; preds = %101, %98
  %106 = load ptr, ptr %12, align 8, !tbaa !16
  %107 = load ptr, ptr %6, align 8, !tbaa !4
  %108 = getelementptr inbounds nuw %struct.AVHWDeviceContext, ptr %107, i32 0, i32 4
  store ptr %106, ptr %108, align 8, !tbaa !21
  %109 = load ptr, ptr %6, align 8, !tbaa !4
  %110 = getelementptr inbounds nuw %struct.AVHWDeviceContext, ptr %109, i32 0, i32 3
  store ptr @vaapi_device_free, ptr %110, align 8, !tbaa !24
  %111 = load i32, ptr %13, align 4, !tbaa !13
  %112 = call ptr @vaGetDisplayDRM(i32 noundef %111)
  store ptr %112, ptr %11, align 8, !tbaa !48
  %113 = load ptr, ptr %11, align 8, !tbaa !48
  %114 = icmp ne ptr %113, null
  br i1 %114, label %117, label %115

115:                                              ; preds = %105
  %116 = load ptr, ptr %6, align 8, !tbaa !4
  call void (ptr, i32, ptr, ...) @av_log(ptr noundef %116, i32 noundef 16, ptr noundef @.str.39)
  store i32 -5, ptr %5, align 4
  store i32 1, ptr %14, align 4
  br label %121

117:                                              ; preds = %105
  %118 = load ptr, ptr %6, align 8, !tbaa !4
  %119 = load ptr, ptr %11, align 8, !tbaa !48
  %120 = call i32 @vaapi_device_connect(ptr noundef %118, ptr noundef %119)
  store i32 %120, ptr %5, align 4
  store i32 1, ptr %14, align 4
  br label %121

121:                                              ; preds = %117, %115, %91, %76, %29
  call void @llvm.lifetime.end.p0(i64 4, ptr %13) #10
  call void @llvm.lifetime.end.p0(i64 8, ptr %12) #10
  call void @llvm.lifetime.end.p0(i64 8, ptr %11) #10
  call void @llvm.lifetime.end.p0(i64 8, ptr %10) #10
  br label %123

122:                                              ; preds = %4
  store i32 -38, ptr %5, align 4
  br label %123

123:                                              ; preds = %122, %121
  %124 = load i32, ptr %5, align 4
  ret i32 %124
}