; Function Attrs: nounwind uwtable
define internal range(i32 -38, 1) i32 @vaapi_device_derive(ptr noundef %0, ptr noundef readonly captures(none) %1, ptr readnone captures(none) %2, i32 %3) #0 {
  %5 = getelementptr inbounds nuw i8, ptr %1, i64 8
  %6 = load i32, ptr %5, align 8, !tbaa !30
  %7 = icmp eq i32 %6, 8
  br i1 %7, label %8, label %46

8:                                                ; preds = %4
  %9 = getelementptr inbounds nuw i8, ptr %1, i64 16
  %10 = load ptr, ptr %9, align 8, !tbaa !31
  %11 = load i32, ptr %10, align 4, !tbaa !32
  %12 = icmp slt i32 %11, 0
  br i1 %12, label %13, label %14

13:                                               ; preds = %8
  tail call void (ptr, i32, ptr, ...) @av_log(ptr noundef %0, i32 noundef 16, ptr noundef nonnull @.str.34) #11
  br label %46

14:                                               ; preds = %8
  %15 = tail call i32 @drmGetNodeTypeFromFd(i32 noundef %11) #11
  %16 = icmp sgt i32 %15, -1
  br i1 %16, label %17, label %31

17:                                               ; preds = %14
  %18 = icmp eq i32 %15, 2
  %19 = load i32, ptr %10, align 4, !tbaa !32
  br i1 %18, label %32, label %20

20:                                               ; preds = %17
  %21 = tail call ptr @drmGetRenderDeviceNameFromFd(i32 noundef %19) #11
  %.not = icmp eq ptr %21, null
  br i1 %.not, label %22, label %24

22:                                               ; preds = %20
  tail call void (ptr, i32, ptr, ...) @av_log(ptr noundef %0, i32 noundef 40, ptr noundef nonnull @.str.36) #11
  %23 = load i32, ptr %10, align 4, !tbaa !32
  br label %32

24:                                               ; preds = %20
  %25 = tail call i32 (ptr, i32, ...) @open64(ptr noundef nonnull %21, i32 noundef 2) #11
  %26 = icmp slt i32 %25, 0
  br i1 %26, label %27, label %29

27:                                               ; preds = %24
  tail call void (ptr, i32, ptr, ...) @av_log(ptr noundef %0, i32 noundef 40, ptr noundef nonnull @.str.37) #11
  %28 = load i32, ptr %10, align 4, !tbaa !32
  br label %30

29:                                               ; preds = %24
  tail call void (ptr, i32, ptr, ...) @av_log(ptr noundef %0, i32 noundef 40, ptr noundef nonnull @.str.38, ptr noundef nonnull %21) #11
  br label %30

30:                                               ; preds = %29, %27
  %.240 = phi i32 [ %28, %27 ], [ %25, %29 ]
  tail call void @free(ptr noundef nonnull %21) #11
  br label %32

31:                                               ; preds = %14
  tail call void (ptr, i32, ptr, ...) @av_log(ptr noundef %0, i32 noundef 16, ptr noundef nonnull @.str.35) #11
  br label %46

32:                                               ; preds = %17, %30, %22
  %.038.ph = phi i32 [ %23, %22 ], [ %.240, %30 ], [ %19, %17 ]
  %33 = tail call noalias ptr @av_mallocz(i64 noundef 16) #11
  %.not48 = icmp eq ptr %33, null
  %34 = load i32, ptr %10, align 4, !tbaa !32
  %.not49 = icmp eq i32 %.038.ph, %34
  br i1 %.not48, label %35, label %38

35:                                               ; preds = %32
  br i1 %.not49, label %46, label %36

36:                                               ; preds = %35
  %37 = tail call i32 @close(i32 noundef %.038.ph) #11
  br label %46

38:                                               ; preds = %32
  %spec.select = select i1 %.not49, i32 -1, i32 %.038.ph
  %39 = getelementptr inbounds nuw i8, ptr %33, i64 8
  store i32 %spec.select, ptr %39, align 8, !tbaa !4
  %40 = getelementptr inbounds nuw i8, ptr %0, i64 32
  store ptr %33, ptr %40, align 8, !tbaa !11
  %41 = getelementptr inbounds nuw i8, ptr %0, i64 24
  store ptr @vaapi_device_free, ptr %41, align 8, !tbaa !14
  %42 = tail call ptr @vaGetDisplayDRM(i32 noundef %.038.ph) #11
  %.not50 = icmp eq ptr %42, null
  br i1 %.not50, label %43, label %44

43:                                               ; preds = %38
  tail call void (ptr, i32, ptr, ...) @av_log(ptr noundef nonnull %0, i32 noundef 16, ptr noundef nonnull @.str.39) #11
  br label %46

44:                                               ; preds = %38
  %45 = tail call fastcc i32 @vaapi_device_connect(ptr noundef nonnull %0, ptr noundef %42)
  br label %46

46:                                               ; preds = %31, %4, %13, %43, %44, %36, %35
  %.2 = phi i32 [ -22, %13 ], [ %45, %44 ], [ -5, %43 ], [ -22, %31 ], [ -12, %36 ], [ -12, %35 ], [ -38, %4 ]
  ret i32 %.2
}